target datalayout = "e-m:e-p270:32:32-p271:32:32-p272:64:64-i64:64-i128:128-f80:128-n8:16:32:64-S128"
target triple = "x86_64-pc-linux-gnu"

%struct.avifCodecEncodeOutput = type { %struct.avifEncodeSampleArray }
%struct.avifEncodeSampleArray = type { ptr, i32, i32, i32 }
%struct.avifEncodeSample = type { %struct.avifRWData, i32 }
%struct.avifRWData = type { ptr, i64 }

; Function Attrs: nounwind uwtable
define hidden void @avifCodecEncodeOutputDestroy(ptr noundef %0) #0 {
  %2 = alloca ptr, align 8
  %3 = alloca i32, align 4
  store ptr %0, ptr %2, align 8
  store i32 0, ptr %3, align 4
  br label %4

4:                                                ; preds = %20, %1
  %5 = load i32, ptr %3, align 4
  %6 = load ptr, ptr %2, align 8
  %7 = getelementptr inbounds nuw %struct.avifCodecEncodeOutput, ptr %6, i32 0, i32 0
  %8 = getelementptr inbounds nuw %struct.avifEncodeSampleArray, ptr %7, i32 0, i32 2
  %9 = load i32, ptr %8, align 4
  %10 = icmp ult i32 %5, %9
  br i1 %10, label %11, label %23

11:                                               ; preds = %4
  %12 = load ptr, ptr %2, align 8
  %13 = getelementptr inbounds nuw %struct.avifCodecEncodeOutput, ptr %12, i32 0, i32 0
  %14 = getelementptr inbounds nuw %struct.avifEncodeSampleArray, ptr %13, i32 0, i32 0
  %15 = load ptr, ptr %14, align 8
  %16 = load i32, ptr %3, align 4
  %17 = zext i32 %16 to i64
  %18 = getelementptr inbounds %struct.avifEncodeSample, ptr %15, i64 %17
  %19 = getelementptr inbounds nuw %struct.avifEncodeSample, ptr %18, i32 0, i32 0
  call void @avifRWDataFree(ptr noundef %19)
  br label %20

20:                                               ; preds = %11
  %21 = load i32, ptr %3, align 4
  %22 = add i32 %21, 1
  store i32 %22, ptr %3, align 4
  br label %4, !llvm.loop !6

23:                                               ; preds = %4
  %24 = load ptr, ptr %2, align 8
  %25 = getelementptr inbounds nuw %struct.avifCodecEncodeOutput, ptr %24, i32 0, i32 0
  call void @avifArrayDestroy(ptr noundef %25)
  %26 = load ptr, ptr %2, align 8
  call void @avifFree(ptr noundef %26)
  ret void
}