; Function Attrs: nounwind uwtable
define hidden void @avifCodecEncodeOutputDestroy(ptr noundef %0) local_unnamed_addr #1 {
  %2 = getelementptr inbounds nuw i8, ptr %0, i64 12
  %3 = load i32, ptr %2, align 4
  %.not = icmp eq i32 %3, 0
  br i1 %.not, label %._crit_edge, label %.lr.ph

.lr.ph:                                           ; preds = %1, %.lr.ph
  %indvars.iv = phi i64 [ %indvars.iv.next, %.lr.ph ], [ 0, %1 ]
  %4 = load ptr, ptr %0, align 8
  %5 = getelementptr inbounds %struct.avifEncodeSample, ptr %4, i64 %indvars.iv
  tail call void @avifRWDataFree(ptr noundef %5) #13
  %indvars.iv.next = add nuw nsw i64 %indvars.iv, 1
  %6 = load i32, ptr %2, align 4
  %7 = zext i32 %6 to i64
  %8 = icmp ult i64 %indvars.iv.next, %7
  br i1 %8, label %.lr.ph, label %._crit_edge, !llvm.loop !4

._crit_edge:                                      ; preds = %.lr.ph, %1
  tail call void @avifArrayDestroy(ptr noundef nonnull %0) #13
  tail call void @avifFree(ptr noundef nonnull %0) #13
  ret void
}